Certificate:
    Data:
        Version: 3 (0x2)
        Serial Number: 4159761658386350337 (0x39ba71305e688101)
    Signature Algorithm: sha256WithRSAEncryption
        Issuer: C=US, O=CloudFlare, Inc., OU=Testing Keyless Certificate Authority, L=San Francisco, ST=California
        Validity
            Not Before: Sep  9 20:22:37 2014 GMT
            Not After : Sep  9 20:27:37 2015 GMT
        Subject: C=US, O=Cloudflare, Inc., OU=Testing Keyless ECDSA Client, L=San Francisco, ST=California
        Subject Public Key Info:
            Public Key Algorithm: id-ecPublicKey
                Public-Key: (256 bit)
                pub: 
                    04:f1:5e:d8:06:77:31:6f:15:6c:99:62:14:ec:7d:
                    8e:7f:42:a4:e2:f2:8c:8b:bf:14:ea:5a:59:78:44:
                    77:d8:36:36:b8:e1:2e:f3:35:c9:1e:94:24:b5:e2:
                    e1:0b:e3:4c:1b:7d:1c:55:f3:8f:9f:af:a5:aa:8c:
                    6d:0a:9c:ef:e6
                ASN1 OID: prime256v1
        X509v3 extensions:
            X509v3 Key Usage: critical
                Digital Signature, Key Encipherment
            X509v3 Extended Key Usage: 
                TLS Web Server Authentication, TLS Web Client Authentication
            X509v3 Basic Constraints: critical
                CA:FALSE
            X509v3 Subject Key Identifier: 
                05:81:A8:E3:E5:9C:D7:CA:D3:F8:25:AD:30:BE:E0:BC:56:CA:7F:6F
            X509v3 Authority Key Identifier: 
                keyid:57:E6:EC:DD:25:F3:D6:3B:EE:2F:46:DA:07:3E:69:FD:65:2C:A7:68

            X509v3 Subject Alternative Name: 
                DNS:ecdsa-client
    Signature Algorithm: sha256WithRSAEncryption
         a9:65:8c:d3:9d:c6:64:ec:8f:27:ab:92:c0:e0:f3:9b:9c:ec:
         5b:03:5f:97:a1:94:dd:80:70:de:6d:ce:a8:00:b4:93:4c:8d:
         76:50:01:1f:28:27:84:0d:86:e6:4e:1e:e9:85:27:c0:ff:da:
         45:f9:79:cb:ac:1d:7b:d7:d5:db:1a:2f:a3:7c:84:7a:ba:f2:
         21:83:0a:d4:01:1e:49:fb:d6:69:9d:d7:56:04:f0:be:e7:74:
         eb:4f:54:fd:a9:fc:6f:7b:67:bf:ac:ea:85:86:e0:a2:c3:34:
         24:88:ce:ad:6b:5e:5b:03:e5:53:e7:f2:22:24:8d:22:ab:72:
         1d:1a:d7:ac:19:81:e3:98:f5:18:46:ab:69:7b:3b:29:b8:15:
         8a:a8:de:12:2a:a3:19:2b:ae:7e:ad:40:cc:2e:92:7f:69:3e:
         dd:20:d2:04:d4:9a:b4:b5:82:8d:e4:ba:bd:a3:00:e9:8a:0a:
         bf:2e:d4:36:6e:a3:91:0e:11:5c:5a:66:e4:28:e2:07:16:06:
         e0:f9:b9:b6:81:4d:52:e3:a7:3b:c9:04:3a:e2:f3:91:22:14:
         7f:51:9b:42:05:9e:9c:81:83:19:20:94:ba:61:41:ab:9e:e8:
         b2:0e:46:5a:cd:5a:c0:7b:c0:9a:fa:24:b6:76:0c:c0:00:dd:
         f1:00:bd:13
-----BEGIN CERTIFICATE-----
MIIDTzCCAjmgAwIBAgIIObpxMF5ogQEwCwYJKoZIhvcNAQELMIGFMQswCQYDVQQG
EwJVUzEZMBcGA1UEChMQQ2xvdWRGbGFyZSwgSW5jLjEuMCwGA1UECxMlVGVzdGlu
ZyBLZXlsZXNzIENlcnRpZmljYXRlIEF1dGhvcml0eTEWMBQGA1UEBxMNU2FuIEZy
YW5jaXNjbzETMBEGA1UECBMKQ2FsaWZvcm5pYTAeFw0xNDA5MDkyMDIyMzdaFw0x
NTA5MDkyMDI3MzdaMHwxCzAJBgNVBAYTAlVTMRkwFwYDVQQKExBDbG91ZGZsYXJl
LCBJbmMuMSUwIwYDVQQLExxUZXN0aW5nIEtleWxlc3MgRUNEU0EgQ2xpZW50MRYw
FAYDVQQHEw1TYW4gRnJhbmNpc2NvMRMwEQYDVQQIEwpDYWxpZm9ybmlhMFkwEwYH
KoZIzj0CAQYIKoZIzj0DAQcDQgAE8V7YBncxbxVsmWIU7H2Of0Kk4vKMi78U6lpZ
eER32DY2uOEu8zXJHpQkteLhC+NMG30cVfOPn6+lqoxtCpzv5qOBmTCBljAOBgNV
HQ8BAf8EBAMCAKAwHQYDVR0lBBYwFAYIKwYBBQUHAwEGCCsGAQUFBwMCMAwGA1Ud
EwEB/wQCMAAwHQYDVR0OBBYEFAWBqOPlnNfK0/glrTC+4LxWyn9vMB8GA1UdIwQY
MBaAFFfm7N0l89Y77i9G2gc+af1lLKdoMBcGA1UdEQQQMA6CDGVjZHNhLWNsaWVu
dDALBgkqhkiG9w0BAQsDggEBAKlljNOdxmTsjyerksDg85uc7FsDX5ehlN2AcN5t
zqgAtJNMjXZQAR8oJ4QNhuZOHumFJ8D/2kX5ecusHXvX1dsaL6N8hHq68iGDCtQB
Hkn71mmd11YE8L7ndOtPVP2p/G97Z7+s6oWG4KLDNCSIzq1rXlsD5VPn8iIkjSKr
ch0a16wZgeOY9RhGq2l7Oym4FYqo3hIqoxkrrn6tQMwukn9pPt0g0gTUmrS1go3k
ur2jAOmKCr8u1DZuo5EOEVxaZuQo4gcWBuD5ubaBTVLjpzvJBDri85EiFH9Rm0IF
npyBgxkglLphQaue6LIORlrNWsB7wJr6JLZ2DMAA3fEAvRM=
-----END CERTIFICATE-----
