Certificate:
    Data:
        Version: 3 (0x2)
        Serial Number: 1694806351375322491 (0x17852965a8cd4d7b)
    Signature Algorithm: sha256WithRSAEncryption
        Issuer: C=US, O=CloudFlare, Inc., OU=Testing Key Server Certificate Authority, L=San Francisco, ST=California
        Validity
            Not Before: Sep  9 20:24:50 2014 GMT
            Not After : Sep  9 20:29:50 2015 GMT
        Subject: C=US, O=Cloudflare, Inc., OU=Testing Keyless ECDSA Server, L=San Francisco, ST=California
        Subject Public Key Info:
            Public Key Algorithm: id-ecPublicKey
                Public-Key: (256 bit)
                pub: 
                    04:d6:f9:b2:d8:20:a9:ac:d2:69:39:ec:ac:f6:e7:
                    57:20:62:f9:fe:69:8e:0a:d8:c1:76:c4:5a:68:fd:
                    f5:73:e2:e1:6a:8f:97:1d:0f:2a:0a:cf:8e:54:3c:
                    c8:4d:ea:d0:74:a1:f7:28:50:e9:ae:4a:fb:75:95:
                    c2:c8:14:7e:fb
                ASN1 OID: prime256v1
        X509v3 extensions:
            X509v3 Key Usage: critical
                Digital Signature, Key Encipherment
            X509v3 Extended Key Usage: 
                TLS Web Server Authentication, TLS Web Client Authentication
            X509v3 Basic Constraints: critical
                CA:FALSE
            X509v3 Subject Key Identifier: 
                EF:05:96:C0:7A:B8:BA:6E:11:C9:06:0A:98:9C:A8:2F:DD:6D:A5:AD
            X509v3 Authority Key Identifier: 
                keyid:A9:78:26:19:F1:09:EF:5E:6D:AC:F8:C0:51:91:3C:52:D9:23:48:5A

            X509v3 Subject Alternative Name: 
                DNS:ecdsa-server
    Signature Algorithm: sha256WithRSAEncryption
         a1:1c:8e:e5:fe:dc:95:27:4f:1c:a2:d9:b7:b6:f7:a1:42:12:
         ef:d4:1a:97:5f:3d:e3:e8:e8:d5:e4:95:a2:71:74:5f:74:63:
         d0:09:65:7d:a2:3c:63:53:0c:f9:89:c5:ed:82:a5:bb:5f:9d:
         d9:6d:71:4b:fe:42:77:2a:1b:22:f9:a8:83:d0:6b:06:46:a2:
         93:ec:e8:cc:46:1a:b7:7e:74:84:f5:c0:02:b4:da:81:06:bf:
         2a:67:75:7e:f9:ce:f3:6f:24:fc:b8:96:f0:fb:9c:aa:ad:ca:
         5c:47:22:68:3b:2d:0e:d4:ce:a8:cc:7c:2c:ac:34:22:60:5e:
         b9:63:7d:af:a2:ba:b6:4e:11:44:19:c0:cd:8d:be:60:df:03:
         5a:dd:f2:25:a3:f5:5e:21:dd:e6:c2:02:9b:a5:59:59:ad:8d:
         db:3c:89:b2:ef:a5:0d:27:15:ff:a4:fc:44:f9:b7:2c:3c:62:
         3e:ed:15:5e:b9:82:7c:c7:f6:de:43:dd:f1:96:70:09:5c:b3:
         dc:83:56:47:f1:19:9c:a3:20:cb:bb:8d:8e:44:49:67:fa:86:
         0d:7e:0a:74:de:4b:4e:0c:ae:53:b0:72:46:7f:93:d0:24:a7:
         fd:43:8b:4a:98:02:3a:b1:d9:48:9b:38:3b:7e:56:09:79:54:
         d3:b2:6f:52
-----BEGIN CERTIFICATE-----
MIIDUjCCAjygAwIBAgIIF4UpZajNTXswCwYJKoZIhvcNAQELMIGIMQswCQYDVQQG
EwJVUzEZMBcGA1UEChMQQ2xvdWRGbGFyZSwgSW5jLjExMC8GA1UECxMoVGVzdGlu
ZyBLZXkgU2VydmVyIENlcnRpZmljYXRlIEF1dGhvcml0eTEWMBQGA1UEBxMNU2Fu
IEZyYW5jaXNjbzETMBEGA1UECBMKQ2FsaWZvcm5pYTAeFw0xNDA5MDkyMDI0NTBa
Fw0xNTA5MDkyMDI5NTBaMHwxCzAJBgNVBAYTAlVTMRkwFwYDVQQKExBDbG91ZGZs
YXJlLCBJbmMuMSUwIwYDVQQLExxUZXN0aW5nIEtleWxlc3MgRUNEU0EgU2VydmVy
MRYwFAYDVQQHEw1TYW4gRnJhbmNpc2NvMRMwEQYDVQQIEwpDYWxpZm9ybmlhMFkw
EwYHKoZIzj0CAQYIKoZIzj0DAQcDQgAE1vmy2CCprNJpOeys9udXIGL5/mmOCtjB
dsRaaP31c+Lhao+XHQ8qCs+OVDzITerQdKH3KFDprkr7dZXCyBR++6OBmTCBljAO
BgNVHQ8BAf8EBAMCAKAwHQYDVR0lBBYwFAYIKwYBBQUHAwEGCCsGAQUFBwMCMAwG
A1UdEwEB/wQCMAAwHQYDVR0OBBYEFO8FlsB6uLpuEckGCpicqC/dbaWtMB8GA1Ud
IwQYMBaAFKl4JhnxCe9ebaz4wFGRPFLZI0haMBcGA1UdEQQQMA6CDGVjZHNhLXNl
cnZlcjALBgkqhkiG9w0BAQsDggEBAKEcjuX+3JUnTxyi2be296FCEu/UGpdfPePo
6NXklaJxdF90Y9AJZX2iPGNTDPmJxe2CpbtfndltcUv+QncqGyL5qIPQawZGopPs
6MxGGrd+dIT1wAK02oEGvypndX75zvNvJPy4lvD7nKqtylxHImg7LQ7UzqjMfCys
NCJgXrljfa+iurZOEUQZwM2NvmDfA1rd8iWj9V4h3ebCApulWVmtjds8ibLvpQ0n
Ff+k/ET5tyw8Yj7tFV65gnzH9t5D3fGWcAlcs9yDVkfxGZyjIMu7jY5ESWf6hg1+
CnTeS04MrlOwckZ/k9Akp/1Di0qYAjqx2UibODt+Vgl5VNOyb1I=
-----END CERTIFICATE-----
