Certificate:
    Data:
        Version: 3 (0x2)
        Serial Number: 6829718606319816952 (0x5ec808e3159190f8)
    Signature Algorithm: sha256WithRSAEncryption
        Issuer: C=US, O=CloudFlare, Inc., OU=Testing Keyless Certificate Authority, L=San Francisco, ST=California
        Validity
            Not Before: Sep  9 20:23:00 2014 GMT
            Not After : Sep  9 20:28:00 2015 GMT
        Subject: C=US, O=Cloudflare, Inc., OU=Testing Keyless RSA Client, L=San Francisco, ST=California
        Subject Public Key Info:
            Public Key Algorithm: rsaEncryption
                Public-Key: (2048 bit)
                Modulus:
                    00:dd:f7:27:37:0e:68:67:e5:9f:56:75:46:32:e4:
                    0d:48:2d:65:92:fc:81:14:38:b0:fe:b7:87:f7:9c:
                    ff:14:03:d7:b4:48:08:93:75:0a:e9:db:6e:0f:e1:
                    22:87:58:41:19:b5:70:94:b4:4d:93:08:0e:52:89:
                    1e:34:05:a2:61:a6:ff:14:a5:1c:ae:c5:43:b9:0b:
                    18:89:ca:0f:88:d4:72:8b:39:9c:9a:43:8b:77:98:
                    0e:ef:a9:e1:3d:e5:5b:b0:e9:02:74:1b:bb:a0:f0:
                    8b:bd:db:6c:c7:62:bd:42:96:e4:bf:a2:d6:60:6f:
                    bc:09:28:43:b6:7e:4f:c2:76:71:f1:bd:a9:bb:d2:
                    36:ca:ad:2f:0a:03:39:6a:3e:7a:3c:21:83:5d:0b:
                    56:ac:7b:b2:bc:a6:2f:b3:47:46:70:8a:47:4b:39:
                    d3:9b:c3:85:b1:d9:32:2e:f9:90:d9:b1:cf:58:26:
                    5c:ec:ec:c9:5f:10:2e:7f:2d:77:2e:13:bc:18:15:
                    71:8f:56:36:c7:93:72:3d:4a:81:2b:81:52:d8:e6:
                    f4:84:4c:e6:ee:c8:4b:23:d5:13:78:21:3e:1d:a8:
                    48:84:6e:37:a1:4a:d4:1e:0a:4a:df:dc:32:df:49:
                    6c:b6:32:bd:d6:74:d8:57:14:87:d2:27:13:59:60:
                    d8:27
                Exponent: 65537 (0x10001)
        X509v3 extensions:
            X509v3 Key Usage: critical
                Digital Signature, Key Encipherment
            X509v3 Extended Key Usage: 
                TLS Web Server Authentication, TLS Web Client Authentication
            X509v3 Basic Constraints: critical
                CA:FALSE
            X509v3 Subject Key Identifier: 
                7C:27:33:25:9B:72:04:CE:1D:09:D1:4B:1F:13:F0:FA:CC:89:3A:53
            X509v3 Authority Key Identifier: 
                keyid:57:E6:EC:DD:25:F3:D6:3B:EE:2F:46:DA:07:3E:69:FD:65:2C:A7:68

            X509v3 Subject Alternative Name: 
                DNS:rsa-client
    Signature Algorithm: sha256WithRSAEncryption
         aa:bc:5e:68:23:35:d0:84:2d:3f:18:0a:da:e5:6d:c6:53:0d:
         37:19:eb:24:e1:f7:d4:0a:e8:6b:57:b6:b5:43:7b:68:be:9d:
         42:31:84:7b:d3:3c:a6:4b:87:19:ac:7f:02:a8:39:08:88:96:
         d7:7c:c3:1f:bb:7d:7e:aa:1e:70:74:8c:cd:fa:5e:e0:8c:a6:
         38:18:c5:db:d1:ae:54:b2:99:8e:61:30:29:ef:6f:89:e0:fa:
         63:7c:25:75:4d:20:23:30:6b:9c:a8:08:2e:be:e6:be:04:5a:
         83:d5:a4:51:c7:9e:3c:70:a6:f9:ab:0e:39:2c:b7:7b:22:b6:
         af:5c:8d:9a:76:ce:ec:17:d7:19:1d:51:1d:7a:2a:09:e9:91:
         b1:b2:34:4b:da:bb:23:4f:2d:85:4c:cf:a8:04:39:3e:d0:c9:
         84:6d:61:f1:a8:67:a3:22:6c:83:5c:dd:06:62:c8:25:0b:15:
         fa:a2:83:33:10:f9:cf:cb:df:6f:6e:81:af:83:ee:22:0d:60:
         75:6c:0f:9c:5b:bf:9f:37:31:6e:a5:a3:72:72:11:d3:85:60:
         66:43:c9:b2:53:bd:a6:8b:0d:bf:c6:fd:e3:c9:b7:7c:af:ff:
         48:62:1b:25:08:4e:14:fa:06:09:f3:d1:1c:bd:e9:ee:80:f4:
         b8:b8:dd:06
-----BEGIN CERTIFICATE-----
MIIEFjCCAwCgAwIBAgIIXsgI4xWRkPgwCwYJKoZIhvcNAQELMIGFMQswCQYDVQQG
EwJVUzEZMBcGA1UEChMQQ2xvdWRGbGFyZSwgSW5jLjEuMCwGA1UECxMlVGVzdGlu
ZyBLZXlsZXNzIENlcnRpZmljYXRlIEF1dGhvcml0eTEWMBQGA1UEBxMNU2FuIEZy
YW5jaXNjbzETMBEGA1UECBMKQ2FsaWZvcm5pYTAeFw0xNDA5MDkyMDIzMDBaFw0x
NTA5MDkyMDI4MDBaMHoxCzAJBgNVBAYTAlVTMRkwFwYDVQQKExBDbG91ZGZsYXJl
LCBJbmMuMSMwIQYDVQQLExpUZXN0aW5nIEtleWxlc3MgUlNBIENsaWVudDEWMBQG
A1UEBxMNU2FuIEZyYW5jaXNjbzETMBEGA1UECBMKQ2FsaWZvcm5pYTCCASIwDQYJ
KoZIhvcNAQEBBQADggEPADCCAQoCggEBAN33JzcOaGfln1Z1RjLkDUgtZZL8gRQ4
sP63h/ec/xQD17RICJN1Cunbbg/hIodYQRm1cJS0TZMIDlKJHjQFomGm/xSlHK7F
Q7kLGInKD4jUcos5nJpDi3eYDu+p4T3lW7DpAnQbu6Dwi73bbMdivUKW5L+i1mBv
vAkoQ7Z+T8J2cfG9qbvSNsqtLwoDOWo+ejwhg10LVqx7srymL7NHRnCKR0s505vD
hbHZMi75kNmxz1gmXOzsyV8QLn8tdy4TvBgVcY9WNseTcj1KgSuBUtjm9IRM5u7I
SyPVE3ghPh2oSIRuN6FK1B4KSt/cMt9JbLYyvdZ02FcUh9InE1lg2CcCAwEAAaOB
lzCBlDAOBgNVHQ8BAf8EBAMCAKAwHQYDVR0lBBYwFAYIKwYBBQUHAwEGCCsGAQUF
BwMCMAwGA1UdEwEB/wQCMAAwHQYDVR0OBBYEFHwnMyWbcgTOHQnRSx8T8PrMiTpT
MB8GA1UdIwQYMBaAFFfm7N0l89Y77i9G2gc+af1lLKdoMBUGA1UdEQQOMAyCCnJz
YS1jbGllbnQwCwYJKoZIhvcNAQELA4IBAQCqvF5oIzXQhC0/GAra5W3GUw03Gesk
4ffUCuhrV7a1Q3tovp1CMYR70zymS4cZrH8CqDkIiJbXfMMfu31+qh5wdIzN+l7g
jKY4GMXb0a5UspmOYTAp72+J4PpjfCV1TSAjMGucqAguvua+BFqD1aRRx548cKb5
qw45LLd7IravXI2ads7sF9cZHVEdeioJ6ZGxsjRL2rsjTy2FTM+oBDk+0MmEbWHx
qGejImyDXN0GYsglCxX6ooMzEPnPy99vboGvg+4iDWB1bA+cW7+fNzFupaNychHT
hWBmQ8myU72miw2/xv3jybd8r/9IYhslCE4U+gYJ89EcvenugPS4uN0G
-----END CERTIFICATE-----
