Certificate:
    Data:
        Version: 3 (0x2)
        Serial Number: 4097 (0x1001)
    Signature Algorithm: sha1WithRSAEncryption
        Issuer: C=US, ST=CA, L=San Francisco, O=CloudFlare, Inc.
        Validity
            Not Before: Jun 19 14:36:49 2013 GMT
            Not After : Jun 17 14:36:49 2023 GMT
        Subject: C=US, ST=CA, O=CloudFlare, Inc., CN=Keyless SSL Client
        Subject Public Key Info:
            Public Key Algorithm: rsaEncryption
                Public-Key: (1024 bit)
                Modulus:
                    00:ac:b0:ec:b1:03:89:78:d0:15:0d:e6:30:7e:a7:
                    8e:3a:95:6b:1d:4f:c0:8a:46:4c:e5:c3:a6:36:be:
                    67:ca:0d:92:7b:d4:f9:74:3d:05:2c:90:ac:d9:60:
                    aa:3c:a0:6b:1e:85:1e:bf:c0:b0:dd:2a:2c:26:c3:
                    8d:be:4f:11:86:e1:be:8b:38:a8:ac:81:52:4e:19:
                    fe:7f:7d:9a:8b:68:e6:68:de:c9:71:ff:1d:2f:c0:
                    2b:50:ef:50:1e:a9:ba:03:5f:93:54:a1:4d:45:a5:
                    4d:f2:c9:b4:42:ea:e1:45:a5:65:0e:30:91:05:fc:
                    c7:7c:0d:56:25:fb:46:4c:2b
                Exponent: 65537 (0x10001)
        X509v3 extensions:
            X509v3 Basic Constraints: 
                CA:FALSE
            Netscape Comment: 
                OpenSSL Generated Certificate
            X509v3 Subject Key Identifier: 
                24:3C:EF:59:B7:5C:D0:6D:A9:DA:74:47:70:CC:9E:01:B8:A8:73:4C
            X509v3 Authority Key Identifier: 
                keyid:E1:E9:24:0B:1F:CA:14:5C:C6:14:B1:90:B4:B3:47:B7:89:FC:16:E6

    Signature Algorithm: sha1WithRSAEncryption
         60:99:9d:1e:5c:ff:a2:25:0d:52:f9:3e:6d:d8:52:bc:fe:0b:
         b9:b3:b6:57:51:09:0f:52:86:d6:d3:0c:ab:fc:54:7f:0e:ce:
         ba:3c:5d:8a:71:91:04:70:9f:37:6a:2d:d5:da:0a:8b:df:4e:
         2b:65:f1:8e:08:fb:05:10:41:f8:37:73:eb:eb:08:07:a8:cd:
         36:b1:07:ce:81:a1:77:7a:e2:be:f4:ec:19:5a:2f:a8:58:00:
         25:c4:58:26:ee:6c:d9:7a:b5:39:6c:5d:70:0a:e6:d4:89:a7:
         33:4b:c1:5f:13:c1:7c:f5:47:97:99:67:4f:67:96:2e:ba:fe:
         95:6d
-----BEGIN CERTIFICATE-----
MIICkTCCAfqgAwIBAgICEAEwDQYJKoZIhvcNAQEFBQAwTTELMAkGA1UEBhMCVVMx
CzAJBgNVBAgMAkNBMRYwFAYDVQQHDA1TYW4gRnJhbmNpc2NvMRkwFwYDVQQKDBBD
bG91ZEZsYXJlLCBJbmMuMB4XDTEzMDYxOTE0MzY0OVoXDTIzMDYxNzE0MzY0OVow
UjELMAkGA1UEBhMCVVMxCzAJBgNVBAgMAkNBMRkwFwYDVQQKDBBDbG91ZEZsYXJl
LCBJbmMuMRswGQYDVQQDDBJLZXlsZXNzIFNTTCBDbGllbnQwgZ8wDQYJKoZIhvcN
AQEBBQADgY0AMIGJAoGBAKyw7LEDiXjQFQ3mMH6njjqVax1PwIpGTOXDpja+Z8oN
knvU+XQ9BSyQrNlgqjygax6FHr/AsN0qLCbDjb5PEYbhvos4qKyBUk4Z/n99moto
5mjeyXH/HS/AK1DvUB6pugNfk1ShTUWlTfLJtELq4UWlZQ4wkQX8x3wNViX7Rkwr
AgMBAAGjezB5MAkGA1UdEwQCMAAwLAYJYIZIAYb4QgENBB8WHU9wZW5TU0wgR2Vu
ZXJhdGVkIENlcnRpZmljYXRlMB0GA1UdDgQWBBQkPO9Zt1zQbanadEdwzJ4BuKhz
TDAfBgNVHSMEGDAWgBTh6SQLH8oUXMYUsZC0s0e3ifwW5jANBgkqhkiG9w0BAQUF
AAOBgQBgmZ0eXP+iJQ1S+T5t2FK8/gu5s7ZXUQkPUobW0wyr/FR/Ds66PF2KcZEE
cJ83ai3V2gqL304rZfGOCPsFEEH4N3Pr6wgHqM02sQfOgaF3euK+9OwZWi+oWAAl
xFgm7mzZerU5bF1wCubUiaczS8FfE8F89UeXmWdPZ5Yuuv6VbQ==
-----END CERTIFICATE-----
