Certificate:
    Data:
        Version: 3 (0x2)
        Serial Number: 4096 (0x1000)
    Signature Algorithm: sha1WithRSAEncryption
        Issuer: C=US, ST=CA, L=San Francisco, O=CloudFlare, Inc.
        Validity
            Not Before: Jun 19 14:34:24 2013 GMT
            Not After : Jun 17 14:34:24 2023 GMT
        Subject: C=US, ST=CA, O=CloudFlare, Inc., CN=Keyless SSL
        Subject Public Key Info:
            Public Key Algorithm: rsaEncryption
                Public-Key: (1024 bit)
                Modulus:
                    00:c3:c1:a1:4a:ab:be:6c:53:8c:1a:2e:f8:38:54:
                    5b:6c:b5:9e:c0:03:a5:b5:b1:ac:66:7e:9b:78:e1:
                    d4:e1:a9:38:2f:44:5b:b3:ff:2c:fb:86:e2:23:35:
                    72:6f:23:f8:3d:96:ce:82:d2:ab:c0:7d:0c:ba:f1:
                    d4:b5:95:03:fc:ae:44:08:8a:d2:bf:84:9c:c2:08:
                    7a:53:3d:01:bc:ea:76:9d:42:7e:e9:51:50:21:3d:
                    65:ed:9a:30:b0:86:fa:eb:2d:a5:43:23:73:b2:cd:
                    e4:91:aa:72:35:b2:b2:e8:4b:a2:ce:d3:47:44:5c:
                    a7:b7:26:b8:89:7b:a8:a2:23
                Exponent: 65537 (0x10001)
        X509v3 extensions:
            X509v3 Basic Constraints: 
                CA:FALSE
            Netscape Comment: 
                OpenSSL Generated Certificate
            X509v3 Subject Key Identifier: 
                58:25:CD:D8:7B:51:67:BE:BC:BA:53:28:43:C6:40:39:F3:D6:AE:EC
            X509v3 Authority Key Identifier: 
                keyid:E1:E9:24:0B:1F:CA:14:5C:C6:14:B1:90:B4:B3:47:B7:89:FC:16:E6

    Signature Algorithm: sha1WithRSAEncryption
         48:62:8c:47:fa:42:39:06:38:3a:8f:21:fd:3c:07:88:86:d3:
         41:35:77:03:58:85:9d:c5:73:78:96:fa:2a:ed:11:4b:4d:e6:
         cd:c6:8d:08:52:80:9a:85:9f:85:43:10:73:5c:77:42:99:6a:
         6b:e2:33:7c:f6:f4:96:41:db:28:fc:51:a2:4e:8e:f0:14:15:
         0a:d3:a9:a3:06:dd:b6:bd:92:5d:14:9a:b4:70:39:af:f0:e7:
         4b:1c:2d:49:55:2e:c2:b8:81:29:e4:eb:54:b3:f3:38:a3:d3:
         b3:9e:58:67:0e:86:a7:9b:81:e2:10:f6:b6:fa:62:a0:14:c5:
         f1:8c
-----BEGIN CERTIFICATE-----
MIICijCCAfOgAwIBAgICEAAwDQYJKoZIhvcNAQEFBQAwTTELMAkGA1UEBhMCVVMx
CzAJBgNVBAgMAkNBMRYwFAYDVQQHDA1TYW4gRnJhbmNpc2NvMRkwFwYDVQQKDBBD
bG91ZEZsYXJlLCBJbmMuMB4XDTEzMDYxOTE0MzQyNFoXDTIzMDYxNzE0MzQyNFow
SzELMAkGA1UEBhMCVVMxCzAJBgNVBAgMAkNBMRkwFwYDVQQKDBBDbG91ZEZsYXJl
LCBJbmMuMRQwEgYDVQQDDAtLZXlsZXNzIFNTTDCBnzANBgkqhkiG9w0BAQEFAAOB
jQAwgYkCgYEAw8GhSqu+bFOMGi74OFRbbLWewAOltbGsZn6beOHU4ak4L0Rbs/8s
+4biIzVybyP4PZbOgtKrwH0MuvHUtZUD/K5ECIrSv4Scwgh6Uz0BvOp2nUJ+6VFQ
IT1l7ZowsIb66y2lQyNzss3kkapyNbKy6EuiztNHRFyntya4iXuooiMCAwEAAaN7
MHkwCQYDVR0TBAIwADAsBglghkgBhvhCAQ0EHxYdT3BlblNTTCBHZW5lcmF0ZWQg
Q2VydGlmaWNhdGUwHQYDVR0OBBYEFFglzdh7UWe+vLpTKEPGQDnz1q7sMB8GA1Ud
IwQYMBaAFOHpJAsfyhRcxhSxkLSzR7eJ/BbmMA0GCSqGSIb3DQEBBQUAA4GBAEhi
jEf6QjkGODqPIf08B4iG00E1dwNYhZ3Fc3iW+irtEUtN5s3GjQhSgJqFn4VDEHNc
d0KZamviM3z29JZB2yj8UaJOjvAUFQrTqaMG3ba9kl0UmrRwOa/w50scLUlVLsK4
gSnk61Sz8zij07OeWGcOhqebgeIQ9rb6YqAUxfGM
-----END CERTIFICATE-----
