Certificate:
    Data:
        Version: 3 (0x2)
        Serial Number: 7115159739127975969 (0x62be2015c2e25021)
    Signature Algorithm: sha256WithRSAEncryption
        Issuer: C=US, O=CloudFlare, Inc., OU=Testing Key Server Certificate Authority, L=San Francisco, ST=California
        Validity
            Not Before: Sep  9 19:41:53 2014 GMT
            Not After : Sep  9 19:46:53 2015 GMT
        Subject: C=US, O=CloudFlare, Inc., OU=Testing Key Server Certificate Authority, L=San Francisco, ST=California
        Subject Public Key Info:
            Public Key Algorithm: rsaEncryption
                Public-Key: (2048 bit)
                Modulus:
                    00:c1:d8:fa:83:44:7c:b9:38:7c:9f:e0:7d:c7:20:
                    00:36:12:a8:12:2e:52:8a:3d:04:72:0a:cb:56:27:
                    be:bc:4e:c0:e1:ed:5e:7f:dd:6b:17:05:e9:36:74:
                    99:50:f8:bb:69:09:76:3e:01:99:05:75:70:c8:7b:
                    82:97:e2:3a:87:68:b6:7c:f9:19:bc:a6:63:40:f1:
                    80:d3:6c:22:21:99:64:44:15:10:71:ad:6a:50:b7:
                    73:9d:9c:34:4c:72:5c:68:30:93:35:4e:fd:71:71:
                    c3:93:e7:c1:14:85:4d:99:22:4f:59:b3:bf:2e:05:
                    98:f9:0c:8d:d4:5a:8b:83:e9:04:53:cd:ba:94:e1:
                    56:d4:92:87:89:64:43:a5:c2:fd:4c:8b:42:fa:3a:
                    9a:3e:bc:4e:cf:73:3f:9d:95:61:37:f4:fe:72:f3:
                    e5:44:57:74:af:60:7f:cd:eb:f9:2e:8e:e3:5c:7b:
                    27:68:a2:77:ef:02:76:50:e8:9b:00:eb:71:22:b8:
                    6c:ed:49:8e:19:f8:ff:b9:f4:60:54:87:3d:c1:5a:
                    6f:f7:9a:3a:cf:c6:f2:c5:e6:65:da:ed:73:71:d1:
                    60:ce:fe:43:bb:39:cf:dd:53:b5:86:38:18:5b:ce:
                    3f:b4:f1:e4:93:c0:50:e5:ec:07:e7:49:af:3d:8e:
                    8b:2f
                Exponent: 65537 (0x10001)
        X509v3 extensions:
            X509v3 Key Usage: critical
                Certificate Sign, CRL Sign
            X509v3 Basic Constraints: critical
                CA:TRUE, pathlen:2
            X509v3 Subject Key Identifier: 
                A9:78:26:19:F1:09:EF:5E:6D:AC:F8:C0:51:91:3C:52:D9:23:48:5A
            X509v3 Authority Key Identifier: 
                keyid:A9:78:26:19:F1:09:EF:5E:6D:AC:F8:C0:51:91:3C:52:D9:23:48:5A

    Signature Algorithm: sha256WithRSAEncryption
         7f:08:9e:f6:4e:0b:79:2d:05:9c:09:39:39:b9:1c:eb:81:00:
         9f:c0:a7:92:80:b9:4e:d0:94:e4:5e:6b:d3:11:49:ee:07:5b:
         5b:f8:79:90:5a:36:4b:24:19:05:5e:dc:0d:c2:42:ef:c6:af:
         65:a5:c0:58:27:b3:8c:1d:89:b9:0d:bb:0b:02:76:af:1c:0b:
         58:36:6b:32:9f:30:d2:39:66:42:77:6d:8b:8b:b1:0c:c8:8e:
         c5:d3:cf:d9:33:4f:d8:1d:91:4d:1a:47:68:1e:a1:29:69:fe:
         0a:09:56:1b:ca:55:2f:aa:ee:a0:78:47:24:31:07:50:6d:63:
         59:4e:eb:24:3f:f7:48:a6:97:2d:f2:72:47:c4:f7:b0:a1:98:
         b6:36:5a:a5:b1:ce:73:7f:38:8f:2b:e0:a1:7a:b9:04:fa:c0:
         4e:62:f3:65:d5:b0:49:25:95:73:cc:f9:dc:3e:1f:1d:6b:62:
         f1:0d:92:2e:df:ad:19:ba:96:5d:ac:a3:ac:1b:46:66:a3:84:
         c7:a8:67:57:ba:9f:72:ca:65:20:fd:dd:5d:85:b1:28:7d:e9:
         2e:1c:c5:6f:97:61:e2:2b:d4:29:dc:e3:39:3b:8b:2b:e3:33:
         b2:eb:7d:49:fa:cc:7a:29:bd:6a:7c:c1:4c:ee:bb:0a:de:17:
         0b:89:3d:51
-----BEGIN CERTIFICATE-----
MIID9jCCAuCgAwIBAgIIYr4gFcLiUCEwCwYJKoZIhvcNAQELMIGIMQswCQYDVQQG
EwJVUzEZMBcGA1UEChMQQ2xvdWRGbGFyZSwgSW5jLjExMC8GA1UECxMoVGVzdGlu
ZyBLZXkgU2VydmVyIENlcnRpZmljYXRlIEF1dGhvcml0eTEWMBQGA1UEBxMNU2Fu
IEZyYW5jaXNjbzETMBEGA1UECBMKQ2FsaWZvcm5pYTAeFw0xNDA5MDkxOTQxNTNa
Fw0xNTA5MDkxOTQ2NTNaMIGIMQswCQYDVQQGEwJVUzEZMBcGA1UEChMQQ2xvdWRG
bGFyZSwgSW5jLjExMC8GA1UECxMoVGVzdGluZyBLZXkgU2VydmVyIENlcnRpZmlj
YXRlIEF1dGhvcml0eTEWMBQGA1UEBxMNU2FuIEZyYW5jaXNjbzETMBEGA1UECBMK
Q2FsaWZvcm5pYTCCASIwDQYJKoZIhvcNAQEBBQADggEPADCCAQoCggEBAMHY+oNE
fLk4fJ/gfccgADYSqBIuUoo9BHIKy1YnvrxOwOHtXn/daxcF6TZ0mVD4u2kJdj4B
mQV1cMh7gpfiOodotnz5GbymY0DxgNNsIiGZZEQVEHGtalC3c52cNExyXGgwkzVO
/XFxw5PnwRSFTZkiT1mzvy4FmPkMjdRai4PpBFPNupThVtSSh4lkQ6XC/UyLQvo6
mj68Ts9zP52VYTf0/nLz5URXdK9gf83r+S6O41x7J2iid+8CdlDomwDrcSK4bO1J
jhn4/7n0YFSHPcFab/eaOs/G8sXmZdrtc3HRYM7+Q7s5z91TtYY4GFvOP7Tx5JPA
UOXsB+dJrz2Oiy8CAwEAAaNmMGQwDgYDVR0PAQH/BAQDAgAGMBIGA1UdEwEB/wQI
MAYBAf8CAQIwHQYDVR0OBBYEFKl4JhnxCe9ebaz4wFGRPFLZI0haMB8GA1UdIwQY
MBaAFKl4JhnxCe9ebaz4wFGRPFLZI0haMAsGCSqGSIb3DQEBCwOCAQEAfwie9k4L
eS0FnAk5Obkc64EAn8CnkoC5TtCU5F5r0xFJ7gdbW/h5kFo2SyQZBV7cDcJC78av
ZaXAWCezjB2JuQ27CwJ2rxwLWDZrMp8w0jlmQndti4uxDMiOxdPP2TNP2B2RTRpH
aB6hKWn+CglWG8pVL6ruoHhHJDEHUG1jWU7rJD/3SKaXLfJyR8T3sKGYtjZapbHO
c384jyvgoXq5BPrATmLzZdWwSSWVc8z53D4fHWti8Q2SLt+tGbqWXayjrBtGZqOE
x6hnV7qfcsplIP3dXYWxKH3pLhzFb5dh4ivUKdzjOTuLK+Mzsut9SfrMeim9anzB
TO67Ct4XC4k9UQ==
-----END CERTIFICATE-----
